MPASM 5.77                          MAIN.ASM   5-2-2018  1:12:59         PAGE  1


LOC  OBJECT CODE     LINE SOURCE TEXT
  VALUE

                      00001 
                      00002 
                      00003 
                      00004 #INCLUDE <P16F628A.INC>         ;ARQUIVO PADRÃO MICROCHIP PARA 16F628A
                      00001         LIST
                      00002 
                      00003 ;==========================================================================
                      00004 ; Build date : Nov 22 2017
                      00005 ;  MPASM PIC16F628A processor include
                      00006 ; 
                      00007 ;  (c) Copyright 1999-2017 Microchip Technology, All rights reserved
                      00008 ;==========================================================================
                      00009 
                      00386         LIST
2007   3F33           00005  __CONFIG _BOREN_OFF & _CP_OFF & _PWRTE_ON & _WDT_OFF & _LVP_OFF & _MCLRE_ON
                      00006 
                      00007 
                      00008 #DEFINE BANK0   BCF STATUS,RP0          ;SETA BANK 0 DE MEMÓRIA
                      00009 #DEFINE BANK1   BSF STATUS,RP0          ;SETA BANK 1 DE MEMÓRIA
                      00010 
                      00011 #DEFINE THAB            INTCON, TOIE            ;HABILITA A INTERRUPÇÃO DO TIMER
                      00012 #DEFINE TFLAG           INTCON, T0IF            ;FLAG DE ESTOURO DO TIMER
                      00013 #DEFINE PFLAG           INTCON, INTF            ;FLAG  DE INTERRUPÇÃO EM RB0
                      00014 #DEFINE PC_INTERRUPT    INTCON, RBIF            ;FLAG DE INTERRUPÇÃO  EM PORT CHANGE RB4:RB7
                      00015 
                      00016 #DEFINE ESTADO_BOMBA    ESTADO,1
                      00017 #DEFINE ESTADO_VALVULA  ESTADO,2
                      00018 ;* * * * * * * * * * * * * * * * * * * * * * * * * * * * * * * * * *;* * * * * * * * * * * * * * * * *
                      00019 ;*                                                         VARIÁVEIS                                    
                                                                                   * 
                      00020 ;* * * * * * * * * * * * * * * * * * * * * * * * * * * * * * * * * *;* * * * * * * * * * * * * * * * *
                      00021 ;DEFINIÇÃO DO BLOCO DE VARIÁVEIS
                      00022         CBLOCK 0x20                             ;ENDEREÇO INICIAL DA MÉMORIA DO USUÁRIO
  00000020            00023                 ESTADO  
  00000021            00024                 PB
                      00025         ENDC                                            ;FIM DE BLOCO DE VARIÁVEIS
                      00026 
                      00027 
                      00028 ;* * * * * * * * * * * * * * * * * * * * * * * * * * * * * * * * * * * * * * * * * * * * * *
                      00029 ;*                                              DEFINE ENTRADAS                                         
                                                                                            * 
                      00030 ;* * * * * * * * * * * * * * * * * * * * * * * * * * * * * * * * * * * * * * * * * * * * * *
                      00031 
                      00032 #DEFINE I_CAIXA                 PORTB,4
                      00033 #DEFINE I_CISTERNA              PORTB,5
                      00034 #DEFINE I_RUA                   PORTB,6
                      00035 ;#DEFINE                        PORTB,7
                      00036 
                      00037 ;* * * * * * * * * * * * * * * * * * * * * * * * * * * * * * * * * * * * * * * * * * * * * *
                      00038 ;*                                              DEFINE SAIDAS                                           
                                                                                            * 
                      00039 ;* * * * * * * * * * * * * * * * * * * * * * * * * * * * * * * * * * * * * * * * * * * * * *
                      00040 
MPASM 5.77                          MAIN.ASM   5-2-2018  1:12:59         PAGE  2


LOC  OBJECT CODE     LINE SOURCE TEXT
  VALUE

                      00041 #DEFINE O_ON_OFF                PORTA,0
                      00042 #DEFINE O_BOMBA                 PORTA,1
                      00043 #DEFINE O_VALVULA               PORTA,2
                      00044 
                      00045 
                      00046         ORG 0x00
0000   2???           00047         GOTO    INICIO
                      00048         
                      00049         ORG     0x04
                      00050         
0004   1C0B           00051         BTFSS   PC_INTERRUPT
0005   0009           00052         RETFIE
0006   1405           00053         BSF     O_ON_OFF
0007   0806           00054         MOVF    PORTB,W
0008   00A1           00055         MOVWF   PB
0009   3970           00056         ANDLW   B'01110000'
000A   0821           00057         MOVF    PB,W
000B   0085           00058         MOVWF   PORTA
000C   100B           00059         BCF     PC_INTERRUPT
000D   0009           00060         RETFIE
                      00061 
                      00062 
000E                  00063 LIMPA_TUDO
                      00064         
000E   0185           00065         CLRF    PORTA
000F   0186           00066         CLRF    PORTB
0010   01A0           00067         CLRF    ESTADO
                      00068         
0011   1405           00069         BSF     O_ON_OFF
0012   0008           00070         RETURN
                      00071         
                      00072         
0013                  00073 MAIN
0013   2???           00074         GOTO    MAIN     
                      00075 
                      00076 
0014                  00077 INICIO
0014   1683           00078         BANK1
0015   30E0           00079         MOVLW   B'11100000'
Message[302]: Register in operand not in bank 0.  Ensure that bank bits are correct.
0016   0085           00080         MOVWF   TRISA
0017   30FF           00081         MOVLW   B'11111111'
Message[302]: Register in operand not in bank 0.  Ensure that bank bits are correct.
0018   0086           00082         MOVWF   TRISB
                      00083 
0019   3091           00084         MOVLW   B'10010001'
Message[302]: Register in operand not in bank 0.  Ensure that bank bits are correct.
001A   0081           00085         MOVWF   OPTION_REG
001B   3088           00086         MOVLW   B'10001000'
001C   008B           00087         MOVWF   INTCON
                      00088 
001D   1283           00089         BANK0
                      00090 
MPASM 5.77                          MAIN.ASM   5-2-2018  1:12:59         PAGE  3


LOC  OBJECT CODE     LINE SOURCE TEXT
  VALUE

001E   2???           00091         CALL    LIMPA_TUDO
001F   0820           00092         MOVF    ESTADO,W
0020   0085           00093         MOVWF   PORTA
                      00094         ;BSF    O_ON_OFF
0021   2???           00095         GOTO    MAIN
                      00096         
                      00097 
                      00098 
                      00099 
3F33                  00100         END
MPASM 5.77                          MAIN.ASM   5-2-2018  1:12:59         PAGE  4


SYMBOL TABLE
  LABEL                             VALUE 

ADDEN                             00000003
ADEN                              00000003
BANK0                             BCF STATUS,RP0
BANK1                             BSF STATUS,RP0
BRGH                              00000002
C                                 00000000
C1INV                             00000004
C1OUT                             00000006
C2INV                             00000005
C2OUT                             00000007
CCP1CON                           00000017
CCP1IE                            00000002
CCP1IF                            00000002
CCP1M0                            00000000
CCP1M1                            00000001
CCP1M2                            00000002
CCP1M3                            00000003
CCP1X                             00000005
CCP1Y                             00000004
CCPR1                             00000015
CCPR1H                            00000016
CCPR1L                            00000015
CIS                               00000003
CM0                               00000000
CM1                               00000001
CM2                               00000002
CMCON                             0000001F
CMIE                              00000006
CMIF                              00000006
CREN                              00000004
CSRC                              00000007
DATA_CP_OFF                       00003FFF
DATA_CP_ON                        00003EFF
DC                                00000001
EEADR                             0000009B
EECON1                            0000009C
EECON2                            0000009D
EEDATA                            0000009A
EEIE                              00000007
EEIF                              00000007
ESTADO                            00000020
ESTADO_BOMBA                      ESTADO,1
ESTADO_VALVULA                    ESTADO,2
F                                 00000001
FERR                              00000002
FSR                               00000004
GIE                               00000007
INDF                              00000000
INICIO                            00000014
INTCON                            0000000B
INTE                              00000004
INTEDG                            00000006
INTF                              00000001
MPASM 5.77                          MAIN.ASM   5-2-2018  1:12:59         PAGE  5


SYMBOL TABLE
  LABEL                             VALUE 

IRP                               00000007
I_CAIXA                           PORTB,4
I_CISTERNA                        PORTB,5
I_RUA                             PORTB,6
LIMPA_TUDO                        0000000E
MAIN                              00000013
NOT_BO                            00000000
NOT_BOD                           00000000
NOT_BOR                           00000000
NOT_PD                            00000003
NOT_POR                           00000001
NOT_RBPU                          00000007
NOT_T1SYNC                        00000002
NOT_TO                            00000004
OERR                              00000001
OPTION_REG                        00000081
OSCF                              00000003
O_BOMBA                           PORTA,1
O_ON_OFF                          PORTA,0
O_VALVULA                         PORTA,2
PB                                00000021
PCL                               00000002
PCLATH                            0000000A
PCON                              0000008E
PC_INTERRUPT                      INTCON, RBIF
PEIE                              00000006
PFLAG                             INTCON, INTF
PIE1                              0000008C
PIR1                              0000000C
PORTA                             00000005
PORTB                             00000006
PR2                               00000092
PS0                               00000000
PS1                               00000001
PS2                               00000002
PSA                               00000003
RA0                               00000000
RA1                               00000001
RA2                               00000002
RA3                               00000003
RA4                               00000004
RA5                               00000005
RA6                               00000006
RA7                               00000007
RB0                               00000000
RB1                               00000001
RB2                               00000002
RB3                               00000003
RB4                               00000004
RB5                               00000005
RB6                               00000006
RB7                               00000007
RBIE                              00000003
MPASM 5.77                          MAIN.ASM   5-2-2018  1:12:59         PAGE  6


SYMBOL TABLE
  LABEL                             VALUE 

RBIF                              00000000
RCIE                              00000005
RCIF                              00000005
RCREG                             0000001A
RCSTA                             00000018
RD                                00000000
RP0                               00000005
RP1                               00000006
RX9                               00000006
RX9D                              00000000
SPBRG                             00000099
SPEN                              00000007
SREN                              00000005
STATUS                            00000003
SYNC                              00000004
T0CS                              00000005
T0IE                              00000005
T0IF                              00000002
T0SE                              00000004
T1CKPS0                           00000004
T1CKPS1                           00000005
T1CON                             00000010
T1OSCEN                           00000003
T2CKPS0                           00000000
T2CKPS1                           00000001
T2CON                             00000012
TFLAG                             INTCON, T0IF
THAB                              INTCON, TOIE
TMR0                              00000001
TMR0IE                            00000005
TMR0IF                            00000002
TMR1                              0000000E
TMR1CS                            00000001
TMR1H                             0000000F
TMR1IE                            00000000
TMR1IF                            00000000
TMR1L                             0000000E
TMR1ON                            00000000
TMR2                              00000011
TMR2IE                            00000001
TMR2IF                            00000001
TMR2ON                            00000002
TOUTPS0                           00000003
TOUTPS1                           00000004
TOUTPS2                           00000005
TOUTPS3                           00000006
TRISA                             00000085
TRISA0                            00000000
TRISA1                            00000001
TRISA2                            00000002
TRISA3                            00000003
TRISA4                            00000004
TRISA5                            00000005
MPASM 5.77                          MAIN.ASM   5-2-2018  1:12:59         PAGE  7


SYMBOL TABLE
  LABEL                             VALUE 

TRISA6                            00000006
TRISA7                            00000007
TRISB                             00000086
TRISB0                            00000000
TRISB1                            00000001
TRISB2                            00000002
TRISB3                            00000003
TRISB4                            00000004
TRISB5                            00000005
TRISB6                            00000006
TRISB7                            00000007
TRMT                              00000001
TX9                               00000006
TX9D                              00000000
TXEN                              00000005
TXIE                              00000004
TXIF                              00000004
TXREG                             00000019
TXSTA                             00000098
VR0                               00000000
VR1                               00000001
VR2                               00000002
VR3                               00000003
VRCON                             0000009F
VREN                              00000007
VROE                              00000006
VRR                               00000005
W                                 00000000
WR                                00000001
WREN                              00000002
WRERR                             00000003
Z                                 00000002
_BODEN_OFF                        00003FBF
_BODEN_ON                         00003FFF
_BOREN_OFF                        00003FBF
_BOREN_ON                         00003FFF
_CONFIG                           00002007
_CPD_OFF                          00003FFF
_CPD_ON                           00003EFF
_CP_OFF                           00003FFF
_CP_ON                            00001FFF
_DEVID1                           00002006
_ER_OSC_CLKOUT                    00003FFF
_ER_OSC_NOCLKOUT                  00003FFE
_EXTCLK_OSC                       00003FEF
_FOSC_ECIO                        00003FEF
_FOSC_EXTRCCLK                    00003FFF
_FOSC_EXTRCIO                     00003FFE
_FOSC_HS                          00003FEE
_FOSC_INTOSCCLK                   00003FFD
_FOSC_INTOSCIO                    00003FFC
_FOSC_LP                          00003FEC
_FOSC_XT                          00003FED
MPASM 5.77                          MAIN.ASM   5-2-2018  1:12:59         PAGE  8


SYMBOL TABLE
  LABEL                             VALUE 

_HS_OSC                           00003FEE
_IDLOC0                           00002000
_IDLOC1                           00002001
_IDLOC2                           00002002
_IDLOC3                           00002003
_INTOSC_OSC_CLKOUT                00003FFD
_INTOSC_OSC_NOCLKOUT              00003FFC
_INTRC_OSC_CLKOUT                 00003FFD
_INTRC_OSC_NOCLKOUT               00003FFC
_LP_OSC                           00003FEC
_LVP_OFF                          00003F7F
_LVP_ON                           00003FFF
_MCLRE_OFF                        00003FDF
_MCLRE_ON                         00003FFF
_PWRTE_OFF                        00003FFF
_PWRTE_ON                         00003FF7
_RC_OSC_CLKOUT                    00003FFF
_RC_OSC_NOCLKOUT                  00003FFE
_WDTE_OFF                         00003FFB
_WDTE_ON                          00003FFF
_WDT_OFF                          00003FFB
_WDT_ON                           00003FFF
_XT_OSC                           00003FED
__16F628A                         00000001

Errors   :     0
Warnings :     0 reported,     0 suppressed
Messages :     3 reported,     0 suppressed

